target datalayout = "e-m:e-p270:32:32-p271:32:32-p272:64:64-i64:64-i128:128-f80:128-n8:16:32:64-S128"
target triple = "x86_64-pc-linux-gnu"

@.str = private unnamed_addr constant [22 x i8] c"qemu_in_main_thread()\00", align 1
@.str.1 = private unnamed_addr constant [19 x i8] c"../qemu/blockdev.c\00", align 1
@__PRETTY_FUNCTION__.bds_tree_init = private unnamed_addr constant [51 x i8] c"BlockDriverState *bds_tree_init(QDict *, Error **)\00", align 1
@.str.8 = private unnamed_addr constant [13 x i8] c"cache.direct\00", align 1
@.str.9 = private unnamed_addr constant [4 x i8] c"off\00", align 1
@.str.10 = private unnamed_addr constant [15 x i8] c"cache.no-flush\00", align 1
@.str.11 = private unnamed_addr constant [10 x i8] c"read-only\00", align 1

; Function Attrs: nounwind sspstrong uwtable
define dso_local ptr @bds_tree_init(ptr noundef %0, ptr noundef %1) #0 {
  %3 = alloca ptr, align 8
  %4 = alloca ptr, align 8
  %5 = alloca i32, align 4
  store ptr %0, ptr %3, align 8
  store ptr %1, ptr %4, align 8
  call void @llvm.lifetime.start.p0(i64 4, ptr %5) #16
  store i32 0, ptr %5, align 4
  br label %6

6:                                                ; preds = %2
  %7 = call zeroext i1 @qemu_in_main_thread()
  br i1 %7, label %8, label %9

8:                                                ; preds = %6
  br label %10

9:                                                ; preds = %6
  call void @__assert_fail(ptr noundef @.str, ptr noundef @.str.1, i32 noundef 667, ptr noundef @__PRETTY_FUNCTION__.bds_tree_init) #15
  unreachable

10:                                               ; preds = %8
  br label %11

11:                                               ; preds = %10
  br label %12

12:                                               ; preds = %11
  %13 = load ptr, ptr %3, align 8
  call void @qdict_set_default_str(ptr noundef %13, ptr noundef @.str.8, ptr noundef @.str.9)
  %14 = load ptr, ptr %3, align 8
  call void @qdict_set_default_str(ptr noundef %14, ptr noundef @.str.10, ptr noundef @.str.9)
  %15 = load ptr, ptr %3, align 8
  call void @qdict_set_default_str(ptr noundef %15, ptr noundef @.str.11, ptr noundef @.str.9)
  %16 = call zeroext i1 @runstate_check(i32 noundef 1)
  br i1 %16, label %17, label %20

17:                                               ; preds = %12
  %18 = load i32, ptr %5, align 4
  %19 = or i32 %18, 2048
  store i32 %19, ptr %5, align 4
  br label %20

20:                                               ; preds = %17, %12
  %21 = load ptr, ptr %3, align 8
  %22 = load i32, ptr %5, align 4
  %23 = load ptr, ptr %4, align 8
  %24 = call ptr @bdrv_open(ptr noundef null, ptr noundef null, ptr noundef %21, i32 noundef %22, ptr noundef %23)
  call void @llvm.lifetime.end.p0(i64 4, ptr %5) #16
  ret ptr %24
}