; Function Attrs: nounwind sspstrong uwtable
define dso_local ptr @bds_tree_init(ptr noundef %0, ptr noundef %1) local_unnamed_addr #0 {
  %3 = tail call zeroext i1 @qemu_in_main_thread() #14
  br i1 %3, label %5, label %4

4:                                                ; preds = %2
  tail call void @__assert_fail(ptr noundef nonnull @.str, ptr noundef nonnull @.str.1, i32 noundef 667, ptr noundef nonnull @__PRETTY_FUNCTION__.bds_tree_init) #15
  unreachable

5:                                                ; preds = %2
  tail call void @qdict_set_default_str(ptr noundef %0, ptr noundef nonnull @.str.8, ptr noundef nonnull @.str.9) #14
  tail call void @qdict_set_default_str(ptr noundef %0, ptr noundef nonnull @.str.10, ptr noundef nonnull @.str.9) #14
  tail call void @qdict_set_default_str(ptr noundef %0, ptr noundef nonnull @.str.11, ptr noundef nonnull @.str.9) #14
  %6 = tail call zeroext i1 @runstate_check(i32 noundef 1) #14
  %spec.select = select i1 %6, i32 2048, i32 0
  %7 = tail call ptr @bdrv_open(ptr noundef null, ptr noundef null, ptr noundef %0, i32 noundef %spec.select, ptr noundef %1) #14
  ret ptr %7
}